target datalayout = "e-m:e-p270:32:32-p271:32:32-p272:64:64-i64:64-i128:128-f80:128-n8:16:32:64-S128"
target triple = "x86_64-unknown-linux-gnu"

; Function Attrs: mustprogress uwtable
define hidden void @_ZN7datalog11rel_context19restrict_predicatesERK13obj_hashtableI9func_declE(ptr noundef nonnull align 8 dereferenceable(432) %this, ptr noundef nonnull align 8 dereferenceable(20) %predicates) unnamed_addr #4 align 2 {
entry:
  %this.addr = alloca ptr, align 8
  %predicates.addr = alloca ptr, align 8
  store ptr %this, ptr %this.addr, align 8
  store ptr %predicates, ptr %predicates.addr, align 8
  %this1 = load ptr, ptr %this.addr, align 8
  %vtable = load ptr, ptr %this1, align 8
  %vfn = getelementptr inbounds ptr, ptr %vtable, i64 24
  %0 = load ptr, ptr %vfn, align 8
  %call = call noundef nonnull align 8 dereferenceable(200) ptr %0(ptr noundef nonnull align 8 dereferenceable(432) %this1)
  %1 = load ptr, ptr %predicates.addr, align 8
  call void @_ZN7datalog16relation_manager19restrict_predicatesERK13obj_hashtableI9func_declE(ptr noundef nonnull align 8 dereferenceable(200) %call, ptr noundef nonnull align 8 dereferenceable(20) %1)
  ret void
}