; Function Attrs: mustprogress uwtable
define hidden void @_ZN7datalog11rel_context19restrict_predicatesERK13obj_hashtableI9func_declE(ptr noundef nonnull align 8 dereferenceable(432) %this, ptr noundef nonnull align 8 dereferenceable(20) %predicates) unnamed_addr #3 align 2 {
entry:
  %vtable = load ptr, ptr %this, align 8
  %vfn = getelementptr inbounds i8, ptr %vtable, i64 192
  %0 = load ptr, ptr %vfn, align 8
  %call = tail call noundef nonnull align 8 dereferenceable(200) ptr %0(ptr noundef nonnull align 8 dereferenceable(432) %this)
  tail call void @_ZN7datalog16relation_manager19restrict_predicatesERK13obj_hashtableI9func_declE(ptr noundef nonnull align 8 dereferenceable(200) %call, ptr noundef nonnull align 8 dereferenceable(20) %predicates)
  ret void
}